target datalayout = "e-m:e-p270:32:32-p271:32:32-p272:64:64-i64:64-i128:128-f80:128-n8:16:32:64-S128"
target triple = "x86_64-pc-linux-gnu"

@.str.41 = private unnamed_addr constant [3 x i8] c"{}\00", align 1

; Function Attrs: mustprogress nounwind uwtable
define noundef i32 @_ZN11colvarparse12check_bracesERKNSt7__cxx1112basic_stringIcSt11char_traitsIcESaIcEEEm(ptr noundef nonnull align 8 dereferenceable(32) %0, i64 noundef %1) #1 align 2 {
  %3 = alloca ptr, align 8
  %4 = alloca i64, align 8
  %5 = alloca i32, align 4
  %6 = alloca i64, align 8
  store ptr %0, ptr %3, align 8
  store i64 %1, ptr %4, align 8
  store i32 0, ptr %5, align 4
  %7 = load i64, ptr %4, align 8
  store i64 %7, ptr %6, align 8
  br label %8

8:                                                ; preds = %33, %2
  %9 = load ptr, ptr %3, align 8
  %10 = load i64, ptr %6, align 8
  %11 = call noundef i64 @_ZNKSt7__cxx1112basic_stringIcSt11char_traitsIcESaIcEE13find_first_ofEPKcm(ptr noundef nonnull align 8 dereferenceable(32) %9, ptr noundef @.str.41, i64 noundef %10) #11
  store i64 %11, ptr %6, align 8
  %12 = icmp ne i64 %11, -1
  br i1 %12, label %13, label %36

13:                                               ; preds = %8
  %14 = load ptr, ptr %3, align 8
  %15 = load i64, ptr %6, align 8
  %16 = call noundef nonnull align 1 dereferenceable(1) ptr @_ZNKSt7__cxx1112basic_stringIcSt11char_traitsIcESaIcEEixEm(ptr noundef nonnull align 8 dereferenceable(32) %14, i64 noundef %15) #11
  %17 = load i8, ptr %16, align 1
  %18 = sext i8 %17 to i32
  %19 = icmp eq i32 %18, 123
  br i1 %19, label %20, label %23

20:                                               ; preds = %13
  %21 = load i32, ptr %5, align 4
  %22 = add nsw i32 %21, 1
  store i32 %22, ptr %5, align 4
  br label %23

23:                                               ; preds = %20, %13
  %24 = load ptr, ptr %3, align 8
  %25 = load i64, ptr %6, align 8
  %26 = call noundef nonnull align 1 dereferenceable(1) ptr @_ZNKSt7__cxx1112basic_stringIcSt11char_traitsIcESaIcEEixEm(ptr noundef nonnull align 8 dereferenceable(32) %24, i64 noundef %25) #11
  %27 = load i8, ptr %26, align 1
  %28 = sext i8 %27 to i32
  %29 = icmp eq i32 %28, 125
  br i1 %29, label %30, label %33

30:                                               ; preds = %23
  %31 = load i32, ptr %5, align 4
  %32 = add nsw i32 %31, -1
  store i32 %32, ptr %5, align 4
  br label %33

33:                                               ; preds = %30, %23
  %34 = load i64, ptr %6, align 8
  %35 = add i64 %34, 1
  store i64 %35, ptr %6, align 8
  br label %8, !llvm.loop !93

36:                                               ; preds = %8
  %37 = load i32, ptr %5, align 4
  %38 = icmp ne i32 %37, 0
  %39 = select i1 %38, i32 4, i32 0
  ret i32 %39
}