; Function Attrs: mustprogress nounwind uwtable
define noundef i32 @_ZN11colvarparse12check_bracesERKNSt7__cxx1112basic_stringIcSt11char_traitsIcESaIcEEEm(ptr noundef nonnull align 8 dereferenceable(32) %0, i64 noundef %1) local_unnamed_addr #1 align 2 {
  %3 = tail call noundef i64 @_ZNKSt7__cxx1112basic_stringIcSt11char_traitsIcESaIcEE13find_first_ofEPKcm(ptr noundef nonnull align 8 dereferenceable(32) %0, ptr noundef nonnull @.str.41, i64 noundef %1) #15
  %.not13 = icmp eq i64 %3, -1
  br i1 %.not13, label %._crit_edge, label %.lr.ph

.lr.ph:                                           ; preds = %2, %.lr.ph
  %4 = phi i64 [ %14, %.lr.ph ], [ %3, %2 ]
  %.01014 = phi i32 [ %.2, %.lr.ph ], [ 0, %2 ]
  %5 = tail call noundef nonnull align 1 dereferenceable(1) ptr @_ZNKSt7__cxx1112basic_stringIcSt11char_traitsIcESaIcEEixEm(ptr noundef nonnull align 8 dereferenceable(32) %0, i64 noundef %4) #15
  %6 = load i8, ptr %5, align 1
  %7 = icmp eq i8 %6, 123
  %8 = zext i1 %7 to i32
  %spec.select = add nsw i32 %.01014, %8
  %9 = tail call noundef nonnull align 1 dereferenceable(1) ptr @_ZNKSt7__cxx1112basic_stringIcSt11char_traitsIcESaIcEEixEm(ptr noundef nonnull align 8 dereferenceable(32) %0, i64 noundef %4) #15
  %10 = load i8, ptr %9, align 1
  %11 = icmp eq i8 %10, 125
  %12 = sext i1 %11 to i32
  %.2 = add nsw i32 %spec.select, %12
  %13 = add nuw i64 %4, 1
  %14 = tail call noundef i64 @_ZNKSt7__cxx1112basic_stringIcSt11char_traitsIcESaIcEE13find_first_ofEPKcm(ptr noundef nonnull align 8 dereferenceable(32) %0, ptr noundef nonnull @.str.41, i64 noundef %13) #15
  %.not = icmp eq i64 %14, -1
  br i1 %.not, label %._crit_edge.loopexit, label %.lr.ph, !llvm.loop !9

._crit_edge.loopexit:                             ; preds = %.lr.ph
  %15 = icmp eq i32 %.2, 0
  %16 = select i1 %15, i32 0, i32 4
  br label %._crit_edge

._crit_edge:                                      ; preds = %._crit_edge.loopexit, %2
  %.010.lcssa = phi i32 [ 0, %2 ], [ %16, %._crit_edge.loopexit ]
  ret i32 %.010.lcssa
}